target datalayout = "e-m:e-p270:32:32-p271:32:32-p272:64:64-i64:64-i128:128-f80:128-n8:16:32:64-S128"
target triple = "x86_64-unknown-linux-gnu"

%"class.llvh::StringRef" = type { ptr, i64 }
%"class.llvh::cl::Option.base" = type <{ ptr, i32, i16, [2 x i8], i32, i32, %"class.llvh::StringRef", %"class.llvh::StringRef", %"class.llvh::StringRef", ptr, %"class.llvh::SmallPtrSet", i8 }>
%"class.llvh::SmallPtrSet" = type { %"class.llvh::SmallPtrSetImpl.base", [4 x ptr] }
%"class.llvh::SmallPtrSetImpl.base" = type { %"class.llvh::SmallPtrSetImplBase.base" }
%"class.llvh::SmallPtrSetImplBase.base" = type <{ ptr, ptr, i32, i32, i32 }>
%"struct.llvh::cl::GenericOptionValue" = type { ptr }
%"class.llvh::cl::parser.41" = type { %"class.llvh::cl::basic_parser" }
%"class.llvh::cl::basic_parser" = type { %"class.llvh::cl::basic_parser_impl" }
%"class.llvh::cl::basic_parser_impl" = type { ptr }
%"class.llvh::cl::opt.111" = type { %"class.llvh::cl::Option.base", %"class.llvh::cl::opt_storage.112", %"class.llvh::cl::parser.41" }
%"class.llvh::cl::opt_storage.112" = type { ptr, %"struct.llvh::cl::OptionValue.113" }
%"struct.llvh::cl::OptionValue.113" = type { %"struct.llvh::cl::OptionValueBase.114" }
%"struct.llvh::cl::OptionValueBase.114" = type { %"struct.llvh::cl::GenericOptionValue" }
%"class.llvh::raw_ostream" = type <{ ptr, ptr, ptr, ptr, i32, [4 x i8] }>
%"struct.llvh::cl::OptionDiffPrinter.228" = type { i8 }

@.str.33 = private unnamed_addr constant [31 x i8] c"= *cannot print option value*\0A\00", align 1

; Function Attrs: mustprogress nounwind uwtable
define linkonce_odr hidden noundef nonnull align 8 dereferenceable(36) ptr @_ZN4llvh11raw_ostreamlsENS_9StringRefE(ptr noundef nonnull align 8 dereferenceable(36) %this, ptr %Str.coerce0, i64 %Str.coerce1) #0 comdat align 2 {
entry:
  %this.addr.i11 = alloca ptr, align 8
  %this.addr.i9 = alloca ptr, align 8
  %this.addr.i = alloca ptr, align 8
  %retval = alloca ptr, align 8
  %Str = alloca %"class.llvh::StringRef", align 8
  %this.addr = alloca ptr, align 8
  %Size = alloca i64, align 8
  %0 = getelementptr inbounds { ptr, i64 }, ptr %Str, i32 0, i32 0
  store ptr %Str.coerce0, ptr %0, align 8
  %1 = getelementptr inbounds { ptr, i64 }, ptr %Str, i32 0, i32 1
  store i64 %Str.coerce1, ptr %1, align 8
  store ptr %this, ptr %this.addr, align 8
  %this1 = load ptr, ptr %this.addr, align 8
  store ptr %Str, ptr %this.addr.i, align 8
  %this1.i = load ptr, ptr %this.addr.i, align 8
  %Length.i = getelementptr inbounds %"class.llvh::StringRef", ptr %this1.i, i32 0, i32 1
  %2 = load i64, ptr %Length.i, align 8
  store i64 %2, ptr %Size, align 8
  %3 = load i64, ptr %Size, align 8
  %OutBufEnd = getelementptr inbounds %"class.llvh::raw_ostream", ptr %this1, i32 0, i32 2
  %4 = load ptr, ptr %OutBufEnd, align 8
  %OutBufCur = getelementptr inbounds %"class.llvh::raw_ostream", ptr %this1, i32 0, i32 3
  %5 = load ptr, ptr %OutBufCur, align 8
  %sub.ptr.lhs.cast = ptrtoint ptr %4 to i64
  %sub.ptr.rhs.cast = ptrtoint ptr %5 to i64
  %sub.ptr.sub = sub i64 %sub.ptr.lhs.cast, %sub.ptr.rhs.cast
  %cmp = icmp ugt i64 %3, %sub.ptr.sub
  br i1 %cmp, label %if.then, label %if.end

if.then:                                          ; preds = %entry
  store ptr %Str, ptr %this.addr.i11, align 8
  %this1.i12 = load ptr, ptr %this.addr.i11, align 8
  %6 = load ptr, ptr %this1.i12, align 8
  %7 = load i64, ptr %Size, align 8
  %call3 = call noundef nonnull align 8 dereferenceable(36) ptr @_ZN4llvh11raw_ostream5writeEPKcm(ptr noundef nonnull align 8 dereferenceable(36) %this1, ptr noundef %6, i64 noundef %7)
  store ptr %call3, ptr %retval, align 8
  br label %return

if.end:                                           ; preds = %entry
  %8 = load i64, ptr %Size, align 8
  %tobool = icmp ne i64 %8, 0
  br i1 %tobool, label %if.then4, label %if.end8

if.then4:                                         ; preds = %if.end
  %OutBufCur5 = getelementptr inbounds %"class.llvh::raw_ostream", ptr %this1, i32 0, i32 3
  %9 = load ptr, ptr %OutBufCur5, align 8
  store ptr %Str, ptr %this.addr.i9, align 8
  %this1.i10 = load ptr, ptr %this.addr.i9, align 8
  %10 = load ptr, ptr %this1.i10, align 8
  %11 = load i64, ptr %Size, align 8
  call void @llvm.memcpy.p0.p0.i64(ptr align 1 %9, ptr align 1 %10, i64 %11, i1 false)
  %12 = load i64, ptr %Size, align 8
  %OutBufCur7 = getelementptr inbounds %"class.llvh::raw_ostream", ptr %this1, i32 0, i32 3
  %13 = load ptr, ptr %OutBufCur7, align 8
  %add.ptr = getelementptr inbounds i8, ptr %13, i64 %12
  store ptr %add.ptr, ptr %OutBufCur7, align 8
  br label %if.end8

if.end8:                                          ; preds = %if.then4, %if.end
  store ptr %this1, ptr %retval, align 8
  br label %return

return:                                           ; preds = %if.end8, %if.then
  %14 = load ptr, ptr %retval, align 8
  ret ptr %14
}

; Function Attrs: mustprogress nounwind uwtable
define linkonce_odr hidden noundef nonnull align 8 dereferenceable(36) ptr @_ZN4llvh11raw_ostreamlsEPKc(ptr noundef nonnull align 8 dereferenceable(36) %this, ptr noundef %Str) #0 comdat align 2 {
entry:
  %this.addr.i = alloca ptr, align 8
  %Str.addr.i = alloca ptr, align 8
  %this.addr = alloca ptr, align 8
  %Str.addr = alloca ptr, align 8
  %agg.tmp = alloca %"class.llvh::StringRef", align 8
  store ptr %this, ptr %this.addr, align 8
  store ptr %Str, ptr %Str.addr, align 8
  %this1 = load ptr, ptr %this.addr, align 8
  %0 = load ptr, ptr %Str.addr, align 8
  store ptr %agg.tmp, ptr %this.addr.i, align 8
  store ptr %0, ptr %Str.addr.i, align 8
  %this1.i = load ptr, ptr %this.addr.i, align 8
  %1 = load ptr, ptr %Str.addr.i, align 8
  store ptr %1, ptr %this1.i, align 8
  %Length.i = getelementptr inbounds %"class.llvh::StringRef", ptr %this1.i, i32 0, i32 1
  %2 = load ptr, ptr %Str.addr.i, align 8
  %tobool.i = icmp ne ptr %2, null
  br i1 %tobool.i, label %cond.true.i, label %cond.false.i

cond.true.i:                                      ; preds = %entry
  %3 = load ptr, ptr %Str.addr.i, align 8
  %call.i = call i64 @strlen(ptr noundef %3) #14
  br label %_ZN4llvh9StringRefC2EPKc.exit

cond.false.i:                                     ; preds = %entry
  br label %_ZN4llvh9StringRefC2EPKc.exit

_ZN4llvh9StringRefC2EPKc.exit:                    ; preds = %cond.false.i, %cond.true.i
  %cond.i = phi i64 [ %call.i, %cond.true.i ], [ 0, %cond.false.i ]
  store i64 %cond.i, ptr %Length.i, align 8
  %4 = getelementptr inbounds { ptr, i64 }, ptr %agg.tmp, i32 0, i32 0
  %5 = load ptr, ptr %4, align 8
  %6 = getelementptr inbounds { ptr, i64 }, ptr %agg.tmp, i32 0, i32 1
  %7 = load i64, ptr %6, align 8
  %call = call noundef nonnull align 8 dereferenceable(36) ptr @_ZN4llvh11raw_ostreamlsENS_9StringRefE(ptr noundef nonnull align 8 dereferenceable(36) %this1, ptr %5, i64 %7)
  ret ptr %call
}

; Function Attrs: mustprogress nounwind uwtable
define hidden void @_ZNK4llvh2cl17basic_parser_impl18printOptionNoValueERKNS0_6OptionEm(ptr noundef nonnull align 8 dereferenceable(8) %this, ptr noundef nonnull align 8 dereferenceable(145) %O, i64 noundef %GlobalWidth) #0 align 2 {
entry:
  %this.addr = alloca ptr, align 8
  %O.addr = alloca ptr, align 8
  %GlobalWidth.addr = alloca i64, align 8
  store ptr %this, ptr %this.addr, align 8
  store ptr %O, ptr %O.addr, align 8
  store i64 %GlobalWidth, ptr %GlobalWidth.addr, align 8
  %this1 = load ptr, ptr %this.addr, align 8
  %0 = load ptr, ptr %O.addr, align 8
  %1 = load i64, ptr %GlobalWidth.addr, align 8
  call void @_ZNK4llvh2cl17basic_parser_impl15printOptionNameERKNS0_6OptionEm(ptr noundef nonnull align 8 dereferenceable(8) %this1, ptr noundef nonnull align 8 dereferenceable(145) %0, i64 noundef %1)
  %call = call noundef nonnull align 8 dereferenceable(36) ptr @_ZN4llvh4outsEv()
  %call2 = call noundef nonnull align 8 dereferenceable(36) ptr @_ZN4llvh11raw_ostreamlsEPKc(ptr noundef nonnull align 8 dereferenceable(36) %call, ptr noundef @.str.33)
  ret void
}

; Function Attrs: mustprogress nounwind uwtable
define internal void @_ZN4llvh2cl17OptionDiffPrinterIbN12_GLOBAL__N_118HelpPrinterWrapperEE5printERKNS0_6OptionERKNS0_6parserIbEERKS3_RKNS0_11OptionValueIS3_EEm(ptr noundef nonnull align 1 dereferenceable(1) %this, ptr noundef nonnull align 8 dereferenceable(145) %O, ptr noundef nonnull align 8 dereferenceable(8) %P, ptr noundef nonnull align 8 dereferenceable(16) %0, ptr noundef nonnull align 8 dereferenceable(8) %1, i64 noundef %GlobalWidth) #0 align 2 {
entry:
  %this.addr = alloca ptr, align 8
  %O.addr = alloca ptr, align 8
  %P.addr = alloca ptr, align 8
  %.addr = alloca ptr, align 8
  %.addr1 = alloca ptr, align 8
  %GlobalWidth.addr = alloca i64, align 8
  store ptr %this, ptr %this.addr, align 8
  store ptr %O, ptr %O.addr, align 8
  store ptr %P, ptr %P.addr, align 8
  store ptr %0, ptr %.addr, align 8
  store ptr %1, ptr %.addr1, align 8
  store i64 %GlobalWidth, ptr %GlobalWidth.addr, align 8
  %2 = load ptr, ptr %P.addr, align 8
  %3 = load ptr, ptr %O.addr, align 8
  %4 = load i64, ptr %GlobalWidth.addr, align 8
  call void @_ZNK4llvh2cl17basic_parser_impl18printOptionNoValueERKNS0_6OptionEm(ptr noundef nonnull align 8 dereferenceable(8) %2, ptr noundef nonnull align 8 dereferenceable(145) %3, i64 noundef %4)
  ret void
}

; Function Attrs: mustprogress nounwind uwtable
define internal void @_ZNK4llvh2cl11opt_storageIN12_GLOBAL__N_118HelpPrinterWrapperELb1ELb1EE14check_locationEv(ptr noundef nonnull align 8 dereferenceable(16) %this) #0 align 2 {
entry:
  %this.addr = alloca ptr, align 8
  store ptr %this, ptr %this.addr, align 8
  ret void
}

; Function Attrs: mustprogress nounwind uwtable
define internal void @_ZN4llvh2cl15printOptionDiffINS0_6parserIbEEN12_GLOBAL__N_118HelpPrinterWrapperEEEvRKNS0_6OptionERKNS0_12basic_parserINT_16parser_data_typeEEERKT0_RKNS0_11OptionValueISF_EEm(ptr noundef nonnull align 8 dereferenceable(145) %O, ptr noundef nonnull align 8 dereferenceable(8) %P, ptr noundef nonnull align 8 dereferenceable(16) %V, ptr noundef nonnull align 8 dereferenceable(8) %Default, i64 noundef %GlobalWidth) #0 {
entry:
  %O.addr = alloca ptr, align 8
  %P.addr = alloca ptr, align 8
  %V.addr = alloca ptr, align 8
  %Default.addr = alloca ptr, align 8
  %GlobalWidth.addr = alloca i64, align 8
  %printer = alloca %"struct.llvh::cl::OptionDiffPrinter.228", align 1
  store ptr %O, ptr %O.addr, align 8
  store ptr %P, ptr %P.addr, align 8
  store ptr %V, ptr %V.addr, align 8
  store ptr %Default, ptr %Default.addr, align 8
  store i64 %GlobalWidth, ptr %GlobalWidth.addr, align 8
  %0 = load ptr, ptr %O.addr, align 8
  %1 = load ptr, ptr %P.addr, align 8
  %2 = load ptr, ptr %V.addr, align 8
  %3 = load ptr, ptr %Default.addr, align 8
  %4 = load i64, ptr %GlobalWidth.addr, align 8
  call void @_ZN4llvh2cl17OptionDiffPrinterIbN12_GLOBAL__N_118HelpPrinterWrapperEE5printERKNS0_6OptionERKNS0_6parserIbEERKS3_RKNS0_11OptionValueIS3_EEm(ptr noundef nonnull align 1 dereferenceable(1) %printer, ptr noundef nonnull align 8 dereferenceable(145) %0, ptr noundef nonnull align 8 dereferenceable(8) %1, ptr noundef nonnull align 8 dereferenceable(16) %2, ptr noundef nonnull align 8 dereferenceable(8) %3, i64 noundef %4)
  ret void
}

; Function Attrs: mustprogress nounwind uwtable
define internal noundef zeroext i1 @_ZNK4llvh2cl15OptionValueBaseIN12_GLOBAL__N_118HelpPrinterWrapperELb1EE7compareERKS3_(ptr noundef nonnull align 8 dereferenceable(8) %this, ptr noundef nonnull align 8 dereferenceable(16) %0) #0 align 2 {
entry:
  %this.addr = alloca ptr, align 8
  %.addr = alloca ptr, align 8
  store ptr %this, ptr %this.addr, align 8
  store ptr %0, ptr %.addr, align 8
  ret i1 false
}

; Function Attrs: mustprogress nounwind uwtable
define internal noundef nonnull align 8 dereferenceable(16) ptr @_ZNK4llvh2cl11opt_storageIN12_GLOBAL__N_118HelpPrinterWrapperELb1ELb1EE8getValueEv(ptr noundef nonnull align 8 dereferenceable(16) %this) #0 align 2 {
entry:
  %this.addr = alloca ptr, align 8
  store ptr %this, ptr %this.addr, align 8
  %this1 = load ptr, ptr %this.addr, align 8
  call void @_ZNK4llvh2cl11opt_storageIN12_GLOBAL__N_118HelpPrinterWrapperELb1ELb1EE14check_locationEv(ptr noundef nonnull align 8 dereferenceable(16) %this1)
  %Location = getelementptr inbounds %"class.llvh::cl::opt_storage.112", ptr %this1, i32 0, i32 0
  %0 = load ptr, ptr %Location, align 8
  ret ptr %0
}

; Function Attrs: mustprogress nounwind uwtable
define internal noundef nonnull align 8 dereferenceable(8) ptr @_ZNK4llvh2cl11opt_storageIN12_GLOBAL__N_118HelpPrinterWrapperELb1ELb1EE10getDefaultEv(ptr noundef nonnull align 8 dereferenceable(16) %this) #0 align 2 {
entry:
  %this.addr = alloca ptr, align 8
  store ptr %this, ptr %this.addr, align 8
  %this1 = load ptr, ptr %this.addr, align 8
  %Default = getelementptr inbounds %"class.llvh::cl::opt_storage.112", ptr %this1, i32 0, i32 1
  ret ptr %Default
}

; Function Attrs: mustprogress nounwind uwtable
define internal void @_ZNK4llvh2cl3optIN12_GLOBAL__N_118HelpPrinterWrapperELb1ENS0_6parserIbEEE16printOptionValueEmb(ptr noundef nonnull align 8 dereferenceable(176) %this, i64 noundef %GlobalWidth, i1 noundef zeroext %Force) unnamed_addr #0 align 2 {
entry:
  %this.addr = alloca ptr, align 8
  %GlobalWidth.addr = alloca i64, align 8
  %Force.addr = alloca i8, align 1
  store ptr %this, ptr %this.addr, align 8
  store i64 %GlobalWidth, ptr %GlobalWidth.addr, align 8
  %frombool = zext i1 %Force to i8
  store i8 %frombool, ptr %Force.addr, align 1
  %this1 = load ptr, ptr %this.addr, align 8
  %0 = load i8, ptr %Force.addr, align 1
  %tobool = trunc i8 %0 to i1
  br i1 %tobool, label %if.then, label %lor.lhs.false

lor.lhs.false:                                    ; preds = %entry
  %add.ptr = getelementptr inbounds i8, ptr %this1, i64 152
  %call = call noundef nonnull align 8 dereferenceable(8) ptr @_ZNK4llvh2cl11opt_storageIN12_GLOBAL__N_118HelpPrinterWrapperELb1ELb1EE10getDefaultEv(ptr noundef nonnull align 8 dereferenceable(16) %add.ptr)
  %add.ptr2 = getelementptr inbounds i8, ptr %this1, i64 152
  %call3 = call noundef nonnull align 8 dereferenceable(16) ptr @_ZNK4llvh2cl11opt_storageIN12_GLOBAL__N_118HelpPrinterWrapperELb1ELb1EE8getValueEv(ptr noundef nonnull align 8 dereferenceable(16) %add.ptr2)
  %call4 = call noundef zeroext i1 @_ZNK4llvh2cl15OptionValueBaseIN12_GLOBAL__N_118HelpPrinterWrapperELb1EE7compareERKS3_(ptr noundef nonnull align 8 dereferenceable(8) %call, ptr noundef nonnull align 8 dereferenceable(16) %call3)
  br i1 %call4, label %if.then, label %if.end

if.then:                                          ; preds = %lor.lhs.false, %entry
  %Parser = getelementptr inbounds %"class.llvh::cl::opt.111", ptr %this1, i32 0, i32 2
  %add.ptr5 = getelementptr inbounds i8, ptr %this1, i64 152
  %call6 = call noundef nonnull align 8 dereferenceable(16) ptr @_ZNK4llvh2cl11opt_storageIN12_GLOBAL__N_118HelpPrinterWrapperELb1ELb1EE8getValueEv(ptr noundef nonnull align 8 dereferenceable(16) %add.ptr5)
  %add.ptr7 = getelementptr inbounds i8, ptr %this1, i64 152
  %call8 = call noundef nonnull align 8 dereferenceable(8) ptr @_ZNK4llvh2cl11opt_storageIN12_GLOBAL__N_118HelpPrinterWrapperELb1ELb1EE10getDefaultEv(ptr noundef nonnull align 8 dereferenceable(16) %add.ptr7)
  %1 = load i64, ptr %GlobalWidth.addr, align 8
  call void @_ZN4llvh2cl15printOptionDiffINS0_6parserIbEEN12_GLOBAL__N_118HelpPrinterWrapperEEEvRKNS0_6OptionERKNS0_12basic_parserINT_16parser_data_typeEEERKT0_RKNS0_11OptionValueISF_EEm(ptr noundef nonnull align 8 dereferenceable(145) %this1, ptr noundef nonnull align 8 dereferenceable(8) %Parser, ptr noundef nonnull align 8 dereferenceable(16) %call6, ptr noundef nonnull align 8 dereferenceable(8) %call8, i64 noundef %1)
  br label %if.end

if.end:                                           ; preds = %if.then, %lor.lhs.false
  ret void
}