; Function Attrs: mustprogress nounwind uwtable
define internal void @_ZNK4llvh2cl3optIN12_GLOBAL__N_118HelpPrinterWrapperELb1ENS0_6parserIbEEE16printOptionValueEmb(ptr nocapture noundef nonnull readonly align 8 dereferenceable(176) %this, i64 noundef %GlobalWidth, i1 noundef zeroext %Force) unnamed_addr #0 align 2 {
entry:
  br i1 %Force, label %if.then, label %if.end

if.then:                                          ; preds = %entry
  tail call void @_ZNK4llvh2cl17basic_parser_impl15printOptionNameERKNS0_6OptionEm(ptr nonnull align 8 poison, ptr noundef nonnull align 8 dereferenceable(145) %this, i64 noundef %GlobalWidth)
  %call.i.i.i = tail call noundef nonnull align 8 dereferenceable(36) ptr @_ZN4llvh4outsEv() #27
  %OutBufEnd.i5.i.i.i.i = getelementptr inbounds i8, ptr %call.i.i.i, i64 16
  %0 = load ptr, ptr %OutBufEnd.i5.i.i.i.i, align 8
  %OutBufCur.i6.i.i.i.i = getelementptr inbounds i8, ptr %call.i.i.i, i64 24
  %1 = load ptr, ptr %OutBufCur.i6.i.i.i.i, align 8
  %sub.ptr.lhs.cast.i7.i.i.i.i = ptrtoint ptr %0 to i64
  %sub.ptr.rhs.cast.i8.i.i.i.i = ptrtoint ptr %1 to i64
  %sub.ptr.sub.i9.i.i.i.i = sub i64 %sub.ptr.lhs.cast.i7.i.i.i.i, %sub.ptr.rhs.cast.i8.i.i.i.i
  %cmp.i.i.i.i.i = icmp ult i64 %sub.ptr.sub.i9.i.i.i.i, 30
  br i1 %cmp.i.i.i.i.i, label %if.then.i.i.i.i.i, label %if.then4.i.i.i.i.i

if.then.i.i.i.i.i:                                ; preds = %if.then
  %call3.i.i.i.i.i = tail call noundef nonnull align 8 dereferenceable(36) ptr @_ZN4llvh11raw_ostream5writeEPKcm(ptr noundef nonnull align 8 dereferenceable(36) %call.i.i.i, ptr noundef nonnull @.str.33, i64 noundef 30) #27
  br label %if.end

if.then4.i.i.i.i.i:                               ; preds = %if.then
  tail call void @llvm.memcpy.p0.p0.i64(ptr noundef nonnull align 1 dereferenceable(30) %1, ptr noundef nonnull align 1 dereferenceable(30) @.str.33, i64 30, i1 false)
  %2 = load ptr, ptr %OutBufCur.i6.i.i.i.i, align 8
  %add.ptr.i.i.i.i.i = getelementptr inbounds i8, ptr %2, i64 30
  store ptr %add.ptr.i.i.i.i.i, ptr %OutBufCur.i6.i.i.i.i, align 8
  br label %if.end

if.end:                                           ; preds = %if.then4.i.i.i.i.i, %if.then.i.i.i.i.i, %entry
  ret void
}